; Function Attrs: mustprogress nofree norecurse nosync nounwind willreturn memory(read, argmem: readwrite, inaccessiblemem: none) uwtable
define void @_Z17dd_clear_f_vsitesRK12gmx_domdec_tN3gmx8ArrayRefINS2_11BasicVectorIfEEEE(ptr noundef nonnull readonly align 8 captures(none) dereferenceable(1072) %0, ptr writeonly captures(none) %1, ptr readnone captures(none) %2) local_unnamed_addr #2 {
  %4 = getelementptr inbounds nuw i8, ptr %0, i64 824
  %5 = load ptr, ptr %4, align 8, !tbaa !4
  %.not = icmp eq ptr %5, null
  br i1 %.not, label %.loopexit, label %6

6:                                                ; preds = %3
  %7 = getelementptr inbounds nuw i8, ptr %5, i64 352
  %8 = load i32, ptr %7, align 8, !tbaa !9
  %9 = getelementptr inbounds nuw i8, ptr %5, i64 356
  %10 = load i32, ptr %9, align 4, !tbaa !29
  %11 = icmp slt i32 %8, %10
  br i1 %11, label %.lr.ph.preheader, label %.loopexit

.lr.ph.preheader:                                 ; preds = %6
  %12 = sext i32 %8 to i64
  %13 = mul nsw i64 %12, 12
  %scevgep = getelementptr i8, ptr %1, i64 %13
  %14 = xor i32 %8, -1
  %15 = add i32 %10, %14
  %16 = zext i32 %15 to i64
  %17 = mul nuw nsw i64 %16, 12
  %18 = add nuw nsw i64 %17, 12
  tail call void @llvm.memset.p0.i64(ptr noundef nonnull align 4 dereferenceable(1) %scevgep, i8 0, i64 %18, i1 false), !tbaa !30
  br label %.loopexit

.loopexit:                                        ; preds = %.lr.ph.preheader, %6, %3
  ret void
}